; ModuleID = '9/1288.c'
source_filename = "9/1288.c"
target datalayout = "e-m:e-p270:32:32-p271:32:32-p272:64:64-i64:64-f80:128-n8:16:32:64-S128"
target triple = "x86_64-pc-linux-gnu"

%struct.patient = type { [11 x i8], i32 }

@.str = private unnamed_addr constant [3 x i8] c"%d\00", align 1
@.str.1 = private unnamed_addr constant [5 x i8] c"%s%d\00", align 1
@.str.2 = private unnamed_addr constant [4 x i8] c"%s\0A\00", align 1

; Function Attrs: noinline nounwind uwtable
define dso_local i32 @main() #0 {
  %1 = alloca i32, align 4
  %2 = alloca [100 x %struct.patient], align 16
  %3 = alloca i32, align 4
  %4 = alloca i32, align 4
  %5 = alloca i32, align 4
  %6 = alloca i32, align 4
  %7 = alloca i32, align 4
  %8 = alloca i32, align 4
  %9 = alloca [100 x i32], align 16
  %10 = alloca [100 x i32], align 16
  %11 = alloca [11 x i8], align 1
  store i32 0, i32* %1, align 4
  store i32 0, i32* %6, align 4
  store i32 0, i32* %7, align 4
  %12 = call i32 (i8*, ...) @__isoc99_scanf(i8* getelementptr inbounds ([3 x i8], [3 x i8]* @.str, i64 0, i64 0), i32* %3)
  store i32 0, i32* %4, align 4
  br label %13

13:                                               ; preds = %49, %0
  %14 = load i32, i32* %4, align 4
  %15 = load i32, i32* %3, align 4
  %16 = icmp slt i32 %14, %15
  br i1 %16, label %17, label %52

17:                                               ; preds = %13
  %18 = load i32, i32* %4, align 4
  %19 = sext i32 %18 to i64
  %20 = getelementptr inbounds [100 x %struct.patient], [100 x %struct.patient]* %2, i64 0, i64 %19
  %21 = getelementptr inbounds %struct.patient, %struct.patient* %20, i32 0, i32 0
  %22 = getelementptr inbounds [11 x i8], [11 x i8]* %21, i64 0, i64 0
  %23 = load i32, i32* %4, align 4
  %24 = sext i32 %23 to i64
  %25 = getelementptr inbounds [100 x %struct.patient], [100 x %struct.patient]* %2, i64 0, i64 %24
  %26 = getelementptr inbounds %struct.patient, %struct.patient* %25, i32 0, i32 1
  %27 = call i32 (i8*, ...) @__isoc99_scanf(i8* getelementptr inbounds ([5 x i8], [5 x i8]* @.str.1, i64 0, i64 0), i8* %22, i32* %26)
  %28 = load i32, i32* %4, align 4
  %29 = sext i32 %28 to i64
  %30 = getelementptr inbounds [100 x %struct.patient], [100 x %struct.patient]* %2, i64 0, i64 %29
  %31 = getelementptr inbounds %struct.patient, %struct.patient* %30, i32 0, i32 1
  %32 = load i32, i32* %31, align 4
  %33 = icmp sge i32 %32, 60
  br i1 %33, label %34, label %41

34:                                               ; preds = %17
  %35 = load i32, i32* %4, align 4
  %36 = load i32, i32* %6, align 4
  %37 = sext i32 %36 to i64
  %38 = getelementptr inbounds [100 x i32], [100 x i32]* %9, i64 0, i64 %37
  store i32 %35, i32* %38, align 4
  %39 = load i32, i32* %6, align 4
  %40 = add nsw i32 %39, 1
  store i32 %40, i32* %6, align 4
  br label %48

41:                                               ; preds = %17
  %42 = load i32, i32* %4, align 4
  %43 = load i32, i32* %7, align 4
  %44 = sext i32 %43 to i64
  %45 = getelementptr inbounds [100 x i32], [100 x i32]* %10, i64 0, i64 %44
  store i32 %42, i32* %45, align 4
  %46 = load i32, i32* %7, align 4
  %47 = add nsw i32 %46, 1
  store i32 %47, i32* %7, align 4
  br label %48

48:                                               ; preds = %41, %34
  br label %49

49:                                               ; preds = %48
  %50 = load i32, i32* %4, align 4
  %51 = add nsw i32 %50, 1
  store i32 %51, i32* %4, align 4
  br label %13

52:                                               ; preds = %13
  store i32 1, i32* %4, align 4
  br label %53

53:                                               ; preds = %162, %52
  %54 = load i32, i32* %4, align 4
  %55 = load i32, i32* %6, align 4
  %56 = sub nsw i32 %55, 1
  %57 = icmp slt i32 %54, %56
  br i1 %57, label %58, label %165

58:                                               ; preds = %53
  store i32 0, i32* %5, align 4
  br label %59

59:                                               ; preds = %158, %58
  %60 = load i32, i32* %5, align 4
  %61 = load i32, i32* %6, align 4
  %62 = load i32, i32* %4, align 4
  %63 = sub nsw i32 %61, %62
  %64 = icmp slt i32 %60, %63
  br i1 %64, label %65, label %161

65:                                               ; preds = %59
  %66 = load i32, i32* %5, align 4
  %67 = sext i32 %66 to i64
  %68 = getelementptr inbounds [100 x i32], [100 x i32]* %9, i64 0, i64 %67
  %69 = load i32, i32* %68, align 4
  %70 = sext i32 %69 to i64
  %71 = getelementptr inbounds [100 x %struct.patient], [100 x %struct.patient]* %2, i64 0, i64 %70
  %72 = getelementptr inbounds %struct.patient, %struct.patient* %71, i32 0, i32 1
  %73 = load i32, i32* %72, align 4
  %74 = load i32, i32* %5, align 4
  %75 = add nsw i32 %74, 1
  %76 = sext i32 %75 to i64
  %77 = getelementptr inbounds [100 x i32], [100 x i32]* %9, i64 0, i64 %76
  %78 = load i32, i32* %77, align 4
  %79 = sext i32 %78 to i64
  %80 = getelementptr inbounds [100 x %struct.patient], [100 x %struct.patient]* %2, i64 0, i64 %79
  %81 = getelementptr inbounds %struct.patient, %struct.patient* %80, i32 0, i32 1
  %82 = load i32, i32* %81, align 4
  %83 = icmp slt i32 %73, %82
  br i1 %83, label %84, label %157

84:                                               ; preds = %65
  %85 = getelementptr inbounds [11 x i8], [11 x i8]* %11, i64 0, i64 0
  %86 = load i32, i32* %5, align 4
  %87 = sext i32 %86 to i64
  %88 = getelementptr inbounds [100 x i32], [100 x i32]* %9, i64 0, i64 %87
  %89 = load i32, i32* %88, align 4
  %90 = sext i32 %89 to i64
  %91 = getelementptr inbounds [100 x %struct.patient], [100 x %struct.patient]* %2, i64 0, i64 %90
  %92 = getelementptr inbounds %struct.patient, %struct.patient* %91, i32 0, i32 0
  %93 = getelementptr inbounds [11 x i8], [11 x i8]* %92, i64 0, i64 0
  %94 = call i8* @strcpy(i8* %85, i8* %93) #3
  %95 = load i32, i32* %5, align 4
  %96 = sext i32 %95 to i64
  %97 = getelementptr inbounds [100 x i32], [100 x i32]* %9, i64 0, i64 %96
  %98 = load i32, i32* %97, align 4
  %99 = sext i32 %98 to i64
  %100 = getelementptr inbounds [100 x %struct.patient], [100 x %struct.patient]* %2, i64 0, i64 %99
  %101 = getelementptr inbounds %struct.patient, %struct.patient* %100, i32 0, i32 0
  %102 = getelementptr inbounds [11 x i8], [11 x i8]* %101, i64 0, i64 0
  %103 = load i32, i32* %5, align 4
  %104 = add nsw i32 %103, 1
  %105 = sext i32 %104 to i64
  %106 = getelementptr inbounds [100 x i32], [100 x i32]* %9, i64 0, i64 %105
  %107 = load i32, i32* %106, align 4
  %108 = sext i32 %107 to i64
  %109 = getelementptr inbounds [100 x %struct.patient], [100 x %struct.patient]* %2, i64 0, i64 %108
  %110 = getelementptr inbounds %struct.patient, %struct.patient* %109, i32 0, i32 0
  %111 = getelementptr inbounds [11 x i8], [11 x i8]* %110, i64 0, i64 0
  %112 = call i8* @strcpy(i8* %102, i8* %111) #3
  %113 = load i32, i32* %5, align 4
  %114 = add nsw i32 %113, 1
  %115 = sext i32 %114 to i64
  %116 = getelementptr inbounds [100 x i32], [100 x i32]* %9, i64 0, i64 %115
  %117 = load i32, i32* %116, align 4
  %118 = sext i32 %117 to i64
  %119 = getelementptr inbounds [100 x %struct.patient], [100 x %struct.patient]* %2, i64 0, i64 %118
  %120 = getelementptr inbounds %struct.patient, %struct.patient* %119, i32 0, i32 0
  %121 = getelementptr inbounds [11 x i8], [11 x i8]* %120, i64 0, i64 0
  %122 = getelementptr inbounds [11 x i8], [11 x i8]* %11, i64 0, i64 0
  %123 = call i8* @strcpy(i8* %121, i8* %122) #3
  %124 = load i32, i32* %5, align 4
  %125 = sext i32 %124 to i64
  %126 = getelementptr inbounds [100 x i32], [100 x i32]* %9, i64 0, i64 %125
  %127 = load i32, i32* %126, align 4
  %128 = sext i32 %127 to i64
  %129 = getelementptr inbounds [100 x %struct.patient], [100 x %struct.patient]* %2, i64 0, i64 %128
  %130 = getelementptr inbounds %struct.patient, %struct.patient* %129, i32 0, i32 1
  %131 = load i32, i32* %130, align 4
  store i32 %131, i32* %8, align 4
  %132 = load i32, i32* %5, align 4
  %133 = add nsw i32 %132, 1
  %134 = sext i32 %133 to i64
  %135 = getelementptr inbounds [100 x i32], [100 x i32]* %9, i64 0, i64 %134
  %136 = load i32, i32* %135, align 4
  %137 = sext i32 %136 to i64
  %138 = getelementptr inbounds [100 x %struct.patient], [100 x %struct.patient]* %2, i64 0, i64 %137
  %139 = getelementptr inbounds %struct.patient, %struct.patient* %138, i32 0, i32 1
  %140 = load i32, i32* %139, align 4
  %141 = load i32, i32* %5, align 4
  %142 = sext i32 %141 to i64
  %143 = getelementptr inbounds [100 x i32], [100 x i32]* %9, i64 0, i64 %142
  %144 = load i32, i32* %143, align 4
  %145 = sext i32 %144 to i64
  %146 = getelementptr inbounds [100 x %struct.patient], [100 x %struct.patient]* %2, i64 0, i64 %145
  %147 = getelementptr inbounds %struct.patient, %struct.patient* %146, i32 0, i32 1
  store i32 %140, i32* %147, align 4
  %148 = load i32, i32* %8, align 4
  %149 = load i32, i32* %5, align 4
  %150 = add nsw i32 %149, 1
  %151 = sext i32 %150 to i64
  %152 = getelementptr inbounds [100 x i32], [100 x i32]* %9, i64 0, i64 %151
  %153 = load i32, i32* %152, align 4
  %154 = sext i32 %153 to i64
  %155 = getelementptr inbounds [100 x %struct.patient], [100 x %struct.patient]* %2, i64 0, i64 %154
  %156 = getelementptr inbounds %struct.patient, %struct.patient* %155, i32 0, i32 1
  store i32 %148, i32* %156, align 4
  br label %157

157:                                              ; preds = %84, %65
  br label %158

158:                                              ; preds = %157
  %159 = load i32, i32* %5, align 4
  %160 = add nsw i32 %159, 1
  store i32 %160, i32* %5, align 4
  br label %59

161:                                              ; preds = %59
  br label %162

162:                                              ; preds = %161
  %163 = load i32, i32* %4, align 4
  %164 = add nsw i32 %163, 1
  store i32 %164, i32* %4, align 4
  br label %53

165:                                              ; preds = %53
  store i32 0, i32* %4, align 4
  br label %166

166:                                              ; preds = %180, %165
  %167 = load i32, i32* %4, align 4
  %168 = load i32, i32* %6, align 4
  %169 = icmp slt i32 %167, %168
  br i1 %169, label %170, label %183

170:                                              ; preds = %166
  %171 = load i32, i32* %4, align 4
  %172 = sext i32 %171 to i64
  %173 = getelementptr inbounds [100 x i32], [100 x i32]* %9, i64 0, i64 %172
  %174 = load i32, i32* %173, align 4
  %175 = sext i32 %174 to i64
  %176 = getelementptr inbounds [100 x %struct.patient], [100 x %struct.patient]* %2, i64 0, i64 %175
  %177 = getelementptr inbounds %struct.patient, %struct.patient* %176, i32 0, i32 0
  %178 = getelementptr inbounds [11 x i8], [11 x i8]* %177, i64 0, i64 0
  %179 = call i32 (i8*, ...) @printf(i8* getelementptr inbounds ([4 x i8], [4 x i8]* @.str.2, i64 0, i64 0), i8* %178)
  br label %180

180:                                              ; preds = %170
  %181 = load i32, i32* %4, align 4
  %182 = add nsw i32 %181, 1
  store i32 %182, i32* %4, align 4
  br label %166

183:                                              ; preds = %166
  store i32 0, i32* %4, align 4
  br label %184

184:                                              ; preds = %198, %183
  %185 = load i32, i32* %4, align 4
  %186 = load i32, i32* %7, align 4
  %187 = icmp slt i32 %185, %186
  br i1 %187, label %188, label %201

188:                                              ; preds = %184
  %189 = load i32, i32* %4, align 4
  %190 = sext i32 %189 to i64
  %191 = getelementptr inbounds [100 x i32], [100 x i32]* %10, i64 0, i64 %190
  %192 = load i32, i32* %191, align 4
  %193 = sext i32 %192 to i64
  %194 = getelementptr inbounds [100 x %struct.patient], [100 x %struct.patient]* %2, i64 0, i64 %193
  %195 = getelementptr inbounds %struct.patient, %struct.patient* %194, i32 0, i32 0
  %196 = getelementptr inbounds [11 x i8], [11 x i8]* %195, i64 0, i64 0
  %197 = call i32 (i8*, ...) @printf(i8* getelementptr inbounds ([4 x i8], [4 x i8]* @.str.2, i64 0, i64 0), i8* %196)
  br label %198

198:                                              ; preds = %188
  %199 = load i32, i32* %4, align 4
  %200 = add nsw i32 %199, 1
  store i32 %200, i32* %4, align 4
  br label %184

201:                                              ; preds = %184
  ret i32 0
}

declare dso_local i32 @__isoc99_scanf(i8*, ...) #1

; Function Attrs: nounwind
declare dso_local i8* @strcpy(i8*, i8*) #2

declare dso_local i32 @printf(i8*, ...) #1


!llvm.module.flags = !{!0}
!llvm.ident = !{!1}

!0 = !{i32 1, !"wchar_size", i32 4}
!1 = !{!"clang version 10.0.0-4ubuntu1 "}
